; Function Attrs: mustprogress uwtable
define ptr @Z3_mk_bvneg_no_overflow(ptr noundef initializes((1568, 1572)) %0, ptr noundef %1) local_unnamed_addr #3 personality ptr @__gxx_personality_v0 {
  %3 = getelementptr inbounds nuw i8, ptr %0, i64 1568
  store i32 0, ptr %3, align 8, !tbaa !3
  %4 = invoke ptr @Z3_get_sort(ptr noundef nonnull %0, ptr noundef %1)
          to label %5 unwind label %9

5:                                                ; preds = %2
  %6 = invoke noundef ptr @Z3_mk_bvmsb(ptr noundef nonnull %0, ptr noundef %4)
          to label %_ZL12Z3_mk_bvsminP11_Z3_contextP8_Z3_sort.exit unwind label %9

_ZL12Z3_mk_bvsminP11_Z3_contextP8_Z3_sort.exit:   ; preds = %5
  %7 = invoke i32 @Z3_get_error_code(ptr noundef nonnull %0)
          to label %8 unwind label %9

8:                                                ; preds = %_ZL12Z3_mk_bvsminP11_Z3_contextP8_Z3_sort.exit
  %.not = icmp eq i32 %7, 0
  br i1 %.not, label %11, label %28

9:                                                ; preds = %5, %_ZL12Z3_mk_bvsminP11_Z3_contextP8_Z3_sort.exit, %2
  %10 = landingpad { ptr, i32 }
          cleanup
          catch ptr @_ZTI12z3_exception
  br label %20

11:                                               ; preds = %8
  %12 = invoke ptr @Z3_mk_eq(ptr noundef nonnull %0, ptr noundef %1, ptr noundef %6)
          to label %13 unwind label %16

13:                                               ; preds = %11
  %14 = invoke i32 @Z3_get_error_code(ptr noundef nonnull %0)
          to label %15 unwind label %16

15:                                               ; preds = %13
  %.not21 = icmp eq i32 %14, 0
  br i1 %.not21, label %18, label %28

16:                                               ; preds = %18, %13, %11
  %17 = landingpad { ptr, i32 }
          cleanup
          catch ptr @_ZTI12z3_exception
  br label %20

18:                                               ; preds = %15
  %19 = invoke ptr @Z3_mk_not(ptr noundef nonnull %0, ptr noundef %12)
          to label %28 unwind label %16

20:                                               ; preds = %16, %9
  %.pn = phi { ptr, i32 } [ %17, %16 ], [ %10, %9 ]
  %.019 = extractvalue { ptr, i32 } %.pn, 1
  %21 = tail call i32 @llvm.eh.typeid.for.p0(ptr nonnull @_ZTI12z3_exception) #15
  %22 = icmp eq i32 %.019, %21
  br i1 %22, label %23, label %29

23:                                               ; preds = %20
  %.017 = extractvalue { ptr, i32 } %.pn, 0
  %24 = tail call ptr @__cxa_begin_catch(ptr %.017) #15
  invoke void @_ZN3api7context16handle_exceptionER12z3_exception(ptr noundef nonnull align 8 dereferenceable(3056) %0, ptr noundef nonnull align 8 dereferenceable(8) %24)
          to label %25 unwind label %26

25:                                               ; preds = %23
  tail call void @__cxa_end_catch()
  br label %28

26:                                               ; preds = %23
  %27 = landingpad { ptr, i32 }
          cleanup
  invoke void @__cxa_end_catch()
          to label %29 unwind label %30

28:                                               ; preds = %8, %18, %15, %25
  %.2 = phi ptr [ null, %25 ], [ null, %8 ], [ null, %15 ], [ %19, %18 ]
  ret ptr %.2

29:                                               ; preds = %26, %20
  %.merged = phi { ptr, i32 } [ %.pn, %20 ], [ %27, %26 ]
  resume { ptr, i32 } %.merged

30:                                               ; preds = %26
  %31 = landingpad { ptr, i32 }
          catch ptr null
  %32 = extractvalue { ptr, i32 } %31, 0
  tail call void @__clang_call_terminate(ptr %32) #16
  unreachable
}